target datalayout = "e-m:e-p270:32:32-p271:32:32-p272:64:64-i64:64-i128:128-f80:128-n8:16:32:64-S128"
target triple = "x86_64-pc-linux-gnu"

%class.G1CMIsAliveClosure = type { %class.BoolObjectClosure, ptr }
%class.BoolObjectClosure = type { ptr }
%class.BitMap = type { ptr, i64 }
%class.G1MappingChangedListener = type { ptr }
%class.MemRegion = type { ptr, i64 }
%class.G1CMSubjectToDiscoveryClosure = type { %class.BoolObjectClosure, ptr }
%class.G1STWIsAliveClosure = type { %class.BoolObjectClosure, ptr }
%class.TimeInstant = type { %class.CompositeCounterRepresentation }
%class.CompositeCounterRepresentation = type { %class.Representation }
%class.Representation = type { %class.PairRep }
%class.PairRep = type { i64, i64 }
%class.VM_GC_Operation = type <{ %class.VM_GC_Sync_Operation, i32, i32, i8, i8, [2 x i8], i32, i8, [7 x i8] }>
%class.VM_GC_Sync_Operation = type { %class.VM_Operation }
%class.VM_Operation = type { ptr, ptr }
%class.CollectedHeap = type { ptr, ptr, i64, i64, %class.SoftRefPolicy, %class.MemRegion, i8, i64, i32, i32, i32, i32, ptr, ptr }
%class.SoftRefPolicy = type { i8, i8 }
%class.GCCauseSetter = type <{ ptr, i32, [4 x i8] }>
%class.VM_GC_Operation.base = type <{ %class.VM_GC_Sync_Operation, i32, i32, i8, i8, [2 x i8], i32, i8 }>
%class.G1CollectedHeap = type { %class.CollectedHeap, ptr, ptr, ptr, ptr, ptr, %class.TimeInstant, %class.G1HeapRegionSet, %class.G1HeapRegionSet, %class.G1MonotonicArenaMemoryStats, %class.G1MonotonicArenaMemoryStats, ptr, %class.G1RegionMappingChangedListener, ptr, %class.G1HeapRegionManager, ptr, %class.G1YoungGCAllocationFailureInjector, ptr, i64, i64, %class.G1EvacStats, %class.G1EvacStats, ptr, i32, i32, %class.G1CollectorState, i32, i32, %class.G1EdenRegions, %class.G1SurvivorRegions, ptr, ptr, ptr, ptr, %class.G1CollectionSet, ptr, %class.G1CardSetConfiguration, %class.G1MonotonicArenaFreePool, ptr, ptr, ptr, ptr, ptr, %class.G1STWIsAliveClosure, %class.G1STWSubjectToDiscoveryClosure, ptr, %class.G1CMIsAliveClosure, %class.G1CMSubjectToDiscoveryClosure, %class.G1HeapRegionAttrBiasedMappedArray }
%class.G1HeapRegionSet = type { %class.G1HeapRegionSetBase.base, [7 x i8] }
%class.G1HeapRegionSetBase.base = type <{ ptr, ptr, i32, [4 x i8], ptr, i8 }>
%class.G1MonotonicArenaMemoryStats = type { [4 x i64], [4 x i64] }
%class.G1RegionMappingChangedListener = type { %class.G1MappingChangedListener }
%class.G1HeapRegionManager = type { ptr, ptr, %class.G1CommittedRegionMap, i32, [4 x i8], %class.G1HeapRegionTable, ptr, ptr, %class.G1FreeRegionList }
%class.G1CommittedRegionMap = type { ptr, %class.CHeapBitMap, %class.CHeapBitMap, i32, i32 }
%class.CHeapBitMap = type <{ %class.GrowableBitMap, i8, [7 x i8] }>
%class.GrowableBitMap = type { %class.BitMap }
%class.G1HeapRegionTable = type { %class.G1BiasedMappedArray.base, [4 x i8] }
%class.G1BiasedMappedArray.base = type { %class.G1BiasedMappedArrayBase.base }
%class.G1BiasedMappedArrayBase.base = type <{ ptr, ptr, ptr, i64, ptr, i64, i32 }>
%class.G1FreeRegionList = type { %class.G1HeapRegionSetBase.base, ptr, ptr, ptr, ptr }
%class.G1YoungGCAllocationFailureInjector = type { i8 }
%class.G1EvacStats = type { %class.PLABStats, i64, i64, %class.AdaptiveWeightedAverage, i64, i32, i64, i64, i64, i64, i64 }
%class.PLABStats = type { ptr, ptr, i64, i64, i64, i64 }
%class.AdaptiveWeightedAverage = type { float, i32, i32, i8, float }
%class.G1CollectorState = type { i8, i8, i8, i8, i8, i8, i8 }
%class.G1EdenRegions = type { i32, i64, %class.G1RegionsOnNodes }
%class.G1RegionsOnNodes = type { ptr, ptr }
%class.G1SurvivorRegions = type { ptr, i64, %class.G1RegionsOnNodes }
%class.G1CollectionSet = type { ptr, ptr, %class.G1CollectionSetCandidates, ptr, i32, i32, i32, i32, i32, %class.G1CollectionCandidateRegionList, i32, i64 }
%class.G1CollectionSetCandidates = type { [8 x i8], %class.G1CollectionCandidateList, %class.G1CollectionCandidateList, ptr, i32, i32 }
%class.G1CollectionCandidateList = type { %class.GrowableArray }
%class.GrowableArray = type { %class.GrowableArrayWithAllocator, %class.GrowableArrayMetadata }
%class.GrowableArrayWithAllocator = type { %class.GrowableArrayView }
%class.GrowableArrayView = type { %class.GrowableArrayBase, ptr }
%class.GrowableArrayBase = type { i32, i32 }
%class.GrowableArrayMetadata = type { i64 }
%class.G1CollectionCandidateRegionList = type { %class.GrowableArray.2 }
%class.GrowableArray.2 = type { %class.GrowableArrayWithAllocator.3, %class.GrowableArrayMetadata }
%class.GrowableArrayWithAllocator.3 = type { %class.GrowableArrayView.4 }
%class.GrowableArrayView.4 = type { %class.GrowableArrayBase, ptr }
%class.G1CardSetConfiguration = type { i32, i32, i32, i32, i32, i32, i32, i32, i32, i32, i32, ptr }
%class.G1MonotonicArenaFreePool = type { i32, ptr }
%class.G1STWSubjectToDiscoveryClosure = type { %class.BoolObjectClosure, ptr }
%class.G1HeapRegionAttrBiasedMappedArray = type { %class.G1BiasedMappedArray.base.6, [4 x i8] }
%class.G1BiasedMappedArray.base.6 = type { %class.G1BiasedMappedArrayBase.base }
%class.VM_G1CollectForAllocation = type <{ %class.VM_CollectForAllocation, i8, [7 x i8] }>
%class.VM_CollectForAllocation = type { %class.VM_GC_Operation.base, i64, ptr }
%class.G1HeapRegionSetBase = type <{ ptr, ptr, i32, [4 x i8], ptr, i8, [7 x i8] }>

@_ZN8Universe14_collectedHeapE = external global ptr, align 8

; Function Attrs: mustprogress nounwind uwtable
define linkonce_odr hidden noundef i32 @_ZNK19G1HeapRegionSetBase6lengthEv(ptr noundef nonnull align 8 dereferenceable(33) %0) #1 comdat align 2 {
  %2 = alloca ptr, align 8
  store ptr %0, ptr %2, align 8
  %3 = load ptr, ptr %2, align 8
  %4 = getelementptr inbounds %class.G1HeapRegionSetBase, ptr %3, i32 0, i32 2
  %5 = load i32, ptr %4, align 8
  ret i32 %5
}

; Function Attrs: mustprogress nounwind uwtable
define linkonce_odr hidden noundef i32 @_ZNK19G1HeapRegionManager16num_free_regionsEv(ptr noundef nonnull align 8 dereferenceable(232) %0) #1 comdat align 2 {
  %2 = alloca ptr, align 8
  store ptr %0, ptr %2, align 8
  %3 = load ptr, ptr %2, align 8
  %4 = getelementptr inbounds %class.G1HeapRegionManager, ptr %3, i32 0, i32 8
  %5 = call noundef i32 @_ZNK19G1HeapRegionSetBase6lengthEv(ptr noundef nonnull align 8 dereferenceable(33) %4)
  ret i32 %5
}

; Function Attrs: mustprogress nounwind uwtable
define linkonce_odr hidden noundef ptr @_ZN8Universe4heapEv() #1 comdat align 2 {
  %1 = load ptr, ptr @_ZN8Universe14_collectedHeapE, align 8
  ret ptr %1
}

; Function Attrs: mustprogress nounwind uwtable
define linkonce_odr hidden noundef i32 @_ZNK15G1CollectedHeap16num_free_regionsEv(ptr noundef nonnull align 8 dereferenceable(1488) %0) #1 comdat align 2 {
  %2 = alloca ptr, align 8
  store ptr %0, ptr %2, align 8
  %3 = load ptr, ptr %2, align 8
  %4 = getelementptr inbounds %class.G1CollectedHeap, ptr %3, i32 0, i32 14
  %5 = call noundef i32 @_ZNK19G1HeapRegionManager16num_free_regionsEv(ptr noundef nonnull align 8 dereferenceable(232) %4)
  ret i32 %5
}

; Function Attrs: mustprogress nounwind uwtable
define linkonce_odr hidden noundef i32 @_ZN13CollectedHeap8gc_causeEv(ptr noundef nonnull align 8 dereferenceable(104) %0) #1 comdat align 2 {
  %2 = alloca ptr, align 8
  store ptr %0, ptr %2, align 8
  %3 = load ptr, ptr %2, align 8
  %4 = getelementptr inbounds %class.CollectedHeap, ptr %3, i32 0, i32 10
  %5 = load i32, ptr %4, align 8
  ret i32 %5
}

; Function Attrs: mustprogress nounwind uwtable
define linkonce_odr hidden noundef ptr @_ZN13CollectedHeap10named_heapI15G1CollectedHeapEEPT_NS_4NameE(i32 noundef %0) #1 comdat align 2 {
  %2 = alloca i32, align 4
  %3 = alloca ptr, align 8
  store i32 %0, ptr %2, align 4
  %4 = call noundef ptr @_ZN8Universe4heapEv()
  store ptr %4, ptr %3, align 8
  %5 = load ptr, ptr %3, align 8
  ret ptr %5
}

; Function Attrs: mustprogress nounwind uwtable
define linkonce_odr hidden void @_ZN13GCCauseSetterD2Ev(ptr noundef nonnull align 8 dereferenceable(12) %0) unnamed_addr #1 comdat align 2 {
  %2 = alloca ptr, align 8
  store ptr %0, ptr %2, align 8
  %3 = load ptr, ptr %2, align 8
  %4 = getelementptr inbounds %class.GCCauseSetter, ptr %3, i32 0, i32 0
  %5 = load ptr, ptr %4, align 8
  %6 = getelementptr inbounds %class.GCCauseSetter, ptr %3, i32 0, i32 1
  %7 = load i32, ptr %6, align 8
  call void @_ZN13CollectedHeap12set_gc_causeEN7GCCause5CauseE(ptr noundef nonnull align 8 dereferenceable(104) %5, i32 noundef %7)
  ret void
}

; Function Attrs: mustprogress nounwind uwtable
define linkonce_odr hidden noundef zeroext i1 @_ZNK15G1CollectedHeap25should_upgrade_to_full_gcEv(ptr noundef nonnull align 8 dereferenceable(1488) %0) #1 comdat align 2 {
  %2 = alloca ptr, align 8
  store ptr %0, ptr %2, align 8
  %3 = load ptr, ptr %2, align 8
  %4 = load ptr, ptr %3, align 8
  %5 = getelementptr inbounds ptr, ptr %4, i64 14
  %6 = load ptr, ptr %5, align 8
  %7 = call noundef zeroext i1 %6(ptr noundef nonnull align 8 dereferenceable(1488) %3)
  br i1 %7, label %8, label %11

8:                                                ; preds = %1
  %9 = call noundef i32 @_ZNK15G1CollectedHeap16num_free_regionsEv(ptr noundef nonnull align 8 dereferenceable(1488) %3)
  %10 = icmp eq i32 %9, 0
  br label %11

11:                                               ; preds = %8, %1
  %12 = phi i1 [ false, %1 ], [ %10, %8 ]
  ret i1 %12
}

; Function Attrs: mustprogress nounwind uwtable
define linkonce_odr hidden void @_ZN13GCCauseSetterC2EP13CollectedHeapN7GCCause5CauseE(ptr noundef nonnull align 8 dereferenceable(12) %0, ptr noundef %1, i32 noundef %2) unnamed_addr #1 comdat align 2 {
  %4 = alloca ptr, align 8
  %5 = alloca ptr, align 8
  %6 = alloca i32, align 4
  store ptr %0, ptr %4, align 8
  store ptr %1, ptr %5, align 8
  store i32 %2, ptr %6, align 4
  %7 = load ptr, ptr %4, align 8
  %8 = load ptr, ptr %5, align 8
  %9 = getelementptr inbounds %class.GCCauseSetter, ptr %7, i32 0, i32 0
  store ptr %8, ptr %9, align 8
  %10 = getelementptr inbounds %class.GCCauseSetter, ptr %7, i32 0, i32 0
  %11 = load ptr, ptr %10, align 8
  %12 = call noundef i32 @_ZN13CollectedHeap8gc_causeEv(ptr noundef nonnull align 8 dereferenceable(104) %11)
  %13 = getelementptr inbounds %class.GCCauseSetter, ptr %7, i32 0, i32 1
  store i32 %12, ptr %13, align 8
  %14 = getelementptr inbounds %class.GCCauseSetter, ptr %7, i32 0, i32 0
  %15 = load ptr, ptr %14, align 8
  %16 = load i32, ptr %6, align 4
  call void @_ZN13CollectedHeap12set_gc_causeEN7GCCause5CauseE(ptr noundef nonnull align 8 dereferenceable(104) %15, i32 noundef %16)
  ret void
}

; Function Attrs: mustprogress nounwind uwtable
define linkonce_odr hidden noundef ptr @_ZN15G1CollectedHeap4heapEv() #1 comdat align 2 {
  %1 = call noundef ptr @_ZN13CollectedHeap10named_heapI15G1CollectedHeapEEPT_NS_4NameE(i32 noundef 3)
  ret ptr %1
}

; Function Attrs: mustprogress nounwind uwtable
define hidden void @_ZN25VM_G1CollectForAllocation4doitEv(ptr noundef nonnull align 8 dereferenceable(57) %0) unnamed_addr #1 align 2 {
  %2 = alloca ptr, align 8
  %3 = alloca ptr, align 8
  %4 = alloca %class.GCCauseSetter, align 8
  store ptr %0, ptr %2, align 8
  %5 = load ptr, ptr %2, align 8
  %6 = call noundef ptr @_ZN15G1CollectedHeap4heapEv()
  store ptr %6, ptr %3, align 8
  %7 = load ptr, ptr %3, align 8
  %8 = getelementptr inbounds %class.VM_GC_Operation, ptr %5, i32 0, i32 6
  %9 = load i32, ptr %8, align 4
  call void @_ZN13GCCauseSetterC2EP13CollectedHeapN7GCCause5CauseE(ptr noundef nonnull align 8 dereferenceable(12) %4, ptr noundef %7, i32 noundef %9)
  %10 = load ptr, ptr %3, align 8
  %11 = call noundef zeroext i1 @_ZN15G1CollectedHeap32do_collection_pause_at_safepointEv(ptr noundef nonnull align 8 dereferenceable(1488) %10)
  %12 = getelementptr inbounds %class.VM_G1CollectForAllocation, ptr %5, i32 0, i32 1
  %13 = zext i1 %11 to i8
  store i8 %13, ptr %12, align 8
  %14 = getelementptr inbounds %class.VM_CollectForAllocation, ptr %5, i32 0, i32 1
  %15 = load i64, ptr %14, align 8
  %16 = icmp ugt i64 %15, 0
  br i1 %16, label %17, label %24

17:                                               ; preds = %1
  %18 = load ptr, ptr %3, align 8
  %19 = getelementptr inbounds %class.VM_CollectForAllocation, ptr %5, i32 0, i32 1
  %20 = load i64, ptr %19, align 8
  %21 = getelementptr inbounds %class.VM_G1CollectForAllocation, ptr %5, i32 0, i32 1
  %22 = call noundef ptr @_ZN15G1CollectedHeap25satisfy_failed_allocationEmPb(ptr noundef nonnull align 8 dereferenceable(1488) %18, i64 noundef %20, ptr noundef %21)
  %23 = getelementptr inbounds %class.VM_CollectForAllocation, ptr %5, i32 0, i32 2
  store ptr %22, ptr %23, align 8
  br label %33

24:                                               ; preds = %1
  %25 = load ptr, ptr %3, align 8
  %26 = call noundef zeroext i1 @_ZNK15G1CollectedHeap25should_upgrade_to_full_gcEv(ptr noundef nonnull align 8 dereferenceable(1488) %25)
  br i1 %26, label %27, label %32

27:                                               ; preds = %24
  %28 = load ptr, ptr %3, align 8
  %29 = call noundef zeroext i1 @_ZN15G1CollectedHeap26upgrade_to_full_collectionEv(ptr noundef nonnull align 8 dereferenceable(1488) %28)
  %30 = getelementptr inbounds %class.VM_G1CollectForAllocation, ptr %5, i32 0, i32 1
  %31 = zext i1 %29 to i8
  store i8 %31, ptr %30, align 8
  br label %32

32:                                               ; preds = %27, %24
  br label %33

33:                                               ; preds = %32, %17
  call void @_ZN13GCCauseSetterD2Ev(ptr noundef nonnull align 8 dereferenceable(12) %4) #9
  ret void
}