; Function Attrs: mustprogress nounwind uwtable
define hidden void @_ZN25VM_G1CollectForAllocation4doitEv(ptr noundef nonnull align 8 dereferenceable(57) %0) unnamed_addr #0 align 2 {
  %2 = load ptr, ptr @_ZN8Universe14_collectedHeapE, align 8
  %3 = getelementptr inbounds i8, ptr %0, i64 28
  %4 = load i32, ptr %3, align 4
  %5 = getelementptr inbounds i8, ptr %2, i64 80
  %6 = load i32, ptr %5, align 8
  tail call void @_ZN13CollectedHeap12set_gc_causeEN7GCCause5CauseE(ptr noundef nonnull align 8 dereferenceable(104) %2, i32 noundef %4) #10
  %7 = tail call noundef zeroext i1 @_ZN15G1CollectedHeap32do_collection_pause_at_safepointEv(ptr noundef nonnull align 8 dereferenceable(1488) %2) #10
  %8 = getelementptr inbounds i8, ptr %0, i64 56
  %9 = zext i1 %7 to i8
  store i8 %9, ptr %8, align 8
  %10 = getelementptr inbounds i8, ptr %0, i64 40
  %11 = load i64, ptr %10, align 8
  %.not = icmp eq i64 %11, 0
  br i1 %.not, label %15, label %12

12:                                               ; preds = %1
  %13 = tail call noundef ptr @_ZN15G1CollectedHeap25satisfy_failed_allocationEmPb(ptr noundef nonnull align 8 dereferenceable(1488) %2, i64 noundef %11, ptr noundef nonnull %8) #10
  %14 = getelementptr inbounds i8, ptr %0, i64 48
  store ptr %13, ptr %14, align 8
  br label %27

15:                                               ; preds = %1
  %16 = load ptr, ptr %2, align 8
  %17 = getelementptr inbounds i8, ptr %16, i64 112
  %18 = load ptr, ptr %17, align 8
  %19 = tail call noundef zeroext i1 %18(ptr noundef nonnull align 8 dereferenceable(1488) %2) #10
  %20 = getelementptr inbounds i8, ptr %2, i64 568
  %21 = load i32, ptr %20, align 8
  %22 = icmp eq i32 %21, 0
  %23 = select i1 %19, i1 %22, i1 false
  br i1 %23, label %24, label %27

24:                                               ; preds = %15
  %25 = tail call noundef zeroext i1 @_ZN15G1CollectedHeap26upgrade_to_full_collectionEv(ptr noundef nonnull align 8 dereferenceable(1488) %2) #10
  %26 = zext i1 %25 to i8
  store i8 %26, ptr %8, align 8
  br label %27

27:                                               ; preds = %15, %24, %12
  tail call void @_ZN13CollectedHeap12set_gc_causeEN7GCCause5CauseE(ptr noundef nonnull align 8 dereferenceable(104) %2, i32 noundef %6) #10
  ret void
}